; Function Attrs: nounwind uwtable
define void @Terminate(ptr noundef %0) #0 {
  %2 = getelementptr inbounds nuw i8, ptr %0, i64 82216
  %3 = load ptr, ptr %2, align 8
  tail call void @PaPulseAudio_Lock(ptr noundef %3) #13
  %4 = getelementptr inbounds nuw i8, ptr %0, i64 82232
  %5 = load ptr, ptr %4, align 8
  tail call void @pa_context_disconnect(ptr noundef %5) #13
  %6 = load ptr, ptr %2, align 8
  tail call void @PaPulseAudio_UnLock(ptr noundef %6) #13
  tail call void @PaPulseAudio_Free(ptr noundef %0)
  ret void
}